target datalayout = "e-m:e-p270:32:32-p271:32:32-p272:64:64-i64:64-i128:128-f80:128-n8:16:32:64-S128"
target triple = "x86_64-pc-linux-gnu"

%struct.ident_t = type { i32, i32, i32, i32, ptr }
%"class.ncnn::PReLU" = type { %"class.ncnn::Layer", i32, %"class.ncnn::Mat" }
%"class.ncnn::Layer" = type { ptr, i8, i8, i8, i8, i8, i8, i8, i8, i8, i8, i8, i8, i8, i8, i8, i8, i8, i8, i8, i8, i32, ptr, i32, %"class.std::__cxx11::basic_string", %"class.std::__cxx11::basic_string", %"class.std::vector", %"class.std::vector", %"class.std::vector.3", %"class.std::vector.3" }
%"class.std::__cxx11::basic_string" = type { %"struct.std::__cxx11::basic_string<char>::_Alloc_hider", i64, %union.anon }
%"struct.std::__cxx11::basic_string<char>::_Alloc_hider" = type { ptr }
%union.anon = type { i64, [8 x i8] }
%"class.std::vector" = type { %"struct.std::_Vector_base" }
%"struct.std::_Vector_base" = type { %"struct.std::_Vector_base<int, std::allocator<int>>::_Vector_impl" }
%"struct.std::_Vector_base<int, std::allocator<int>>::_Vector_impl" = type { %"struct.std::_Vector_base<int, std::allocator<int>>::_Vector_impl_data" }
%"struct.std::_Vector_base<int, std::allocator<int>>::_Vector_impl_data" = type { ptr, ptr, ptr }
%"class.std::vector.3" = type { %"struct.std::_Vector_base.4" }
%"struct.std::_Vector_base.4" = type { %"struct.std::_Vector_base<ncnn::Mat, std::allocator<ncnn::Mat>>::_Vector_impl" }
%"struct.std::_Vector_base<ncnn::Mat, std::allocator<ncnn::Mat>>::_Vector_impl" = type { %"struct.std::_Vector_base<ncnn::Mat, std::allocator<ncnn::Mat>>::_Vector_impl_data" }
%"struct.std::_Vector_base<ncnn::Mat, std::allocator<ncnn::Mat>>::_Vector_impl_data" = type { ptr, ptr, ptr }
%"class.ncnn::Mat" = type { ptr, ptr, i64, i32, ptr, i32, i32, i32, i32, i32, i64 }
%"class.ncnn::Option" = type { i8, i32, ptr, ptr, i32, i8, i8, i8, i8, i8, i8, i8, i8, i8, i8, i8, i8, i8, i8, i8, i8, i8, i8, i8, i8, i32, i8, i8, i8, i8, i8, i8, i8, i8, i8, i8, i8, i8 }

@2 = private unnamed_addr constant %struct.ident_t { i32 0, i32 2, i32 0, i32 22, ptr @0 }, align 8

; Function Attrs: alwaysinline mustprogress nounwind uwtable
define linkonce_odr hidden noundef nonnull align 4 dereferenceable(4) ptr @_ZNK4ncnn3MatixEm(ptr noundef nonnull align 8 dereferenceable(72) %0, i64 noundef %1) #4 comdat align 2 {
  %3 = alloca ptr, align 8
  %4 = alloca i64, align 8
  store ptr %0, ptr %3, align 8, !tbaa !13
  store i64 %1, ptr %4, align 8, !tbaa !58
  %5 = load ptr, ptr %3, align 8
  %6 = getelementptr inbounds nuw %"class.ncnn::Mat", ptr %5, i32 0, i32 0
  %7 = load ptr, ptr %6, align 8, !tbaa !50
  %8 = load i64, ptr %4, align 8, !tbaa !58
  %9 = getelementptr inbounds nuw float, ptr %7, i64 %8
  ret ptr %9
}

; Function Attrs: alwaysinline mustprogress nounwind uwtable
define linkonce_odr hidden noundef ptr @_ZNK4ncnn3MatcvPKT_IfEEv(ptr noundef nonnull align 8 dereferenceable(72) %0) #4 comdat align 2 {
  %2 = alloca ptr, align 8
  store ptr %0, ptr %2, align 8, !tbaa !13
  %3 = load ptr, ptr %2, align 8
  %4 = getelementptr inbounds nuw %"class.ncnn::Mat", ptr %3, i32 0, i32 0
  %5 = load ptr, ptr %4, align 8, !tbaa !50
  ret ptr %5
}

; Function Attrs: alwaysinline mustprogress nounwind uwtable
define linkonce_odr hidden noundef ptr @_ZN4ncnn3MatcvPT_IfEEv(ptr noundef nonnull align 8 dereferenceable(72) %0) #4 comdat align 2 {
  %2 = alloca ptr, align 8
  store ptr %0, ptr %2, align 8, !tbaa !13
  %3 = load ptr, ptr %2, align 8
  %4 = getelementptr inbounds nuw %"class.ncnn::Mat", ptr %3, i32 0, i32 0
  %5 = load ptr, ptr %4, align 8, !tbaa !50
  ret ptr %5
}

; Function Attrs: mustprogress uwtable
define hidden noundef i32 @_ZNK4ncnn9PReLU_x8615forward_inplaceERNS_3MatERKNS_6OptionE(ptr noundef nonnull align 8 dereferenceable(288) %0, ptr noundef nonnull align 8 dereferenceable(72) %1, ptr noundef nonnull align 8 dereferenceable(64) %2) unnamed_addr #2 align 2 {
  %4 = alloca ptr, align 8
  %5 = alloca ptr, align 8
  %6 = alloca ptr, align 8
  %7 = alloca i32, align 4
  %8 = alloca i32, align 4
  %9 = alloca i32, align 4
  %10 = alloca i32, align 4
  %11 = alloca i32, align 4
  %12 = alloca i32, align 4
  %13 = alloca ptr, align 8
  %14 = alloca ptr, align 8
  %15 = alloca i32, align 4
  %16 = alloca i32, align 4
  %17 = alloca ptr, align 8
  %18 = alloca float, align 4
  %19 = alloca i32, align 4
  %20 = alloca i32, align 4
  %21 = alloca i32, align 4
  %22 = alloca i32, align 4
  %23 = call i32 @__kmpc_global_thread_num(ptr @2)
  store ptr %0, ptr %4, align 8, !tbaa !11
  store ptr %1, ptr %5, align 8, !tbaa !13
  store ptr %2, ptr %6, align 8, !tbaa !15
  %24 = load ptr, ptr %4, align 8
  call void @llvm.lifetime.start.p0(i64 4, ptr %7) #6
  %25 = load ptr, ptr %5, align 8, !tbaa !13
  %26 = getelementptr inbounds nuw %"class.ncnn::Mat", ptr %25, i32 0, i32 5
  %27 = load i32, ptr %26, align 8, !tbaa !17
  store i32 %27, ptr %7, align 4, !tbaa !23
  call void @llvm.lifetime.start.p0(i64 4, ptr %8) #6
  %28 = load ptr, ptr %5, align 8, !tbaa !13
  %29 = getelementptr inbounds nuw %"class.ncnn::Mat", ptr %28, i32 0, i32 6
  %30 = load i32, ptr %29, align 4, !tbaa !24
  store i32 %30, ptr %8, align 4, !tbaa !23
  call void @llvm.lifetime.start.p0(i64 4, ptr %9) #6
  %31 = load ptr, ptr %5, align 8, !tbaa !13
  %32 = getelementptr inbounds nuw %"class.ncnn::Mat", ptr %31, i32 0, i32 7
  %33 = load i32, ptr %32, align 8, !tbaa !25
  store i32 %33, ptr %9, align 4, !tbaa !23
  call void @llvm.lifetime.start.p0(i64 4, ptr %10) #6
  %34 = load ptr, ptr %5, align 8, !tbaa !13
  %35 = getelementptr inbounds nuw %"class.ncnn::Mat", ptr %34, i32 0, i32 9
  %36 = load i32, ptr %35, align 8, !tbaa !26
  store i32 %36, ptr %10, align 4, !tbaa !23
  call void @llvm.lifetime.start.p0(i64 4, ptr %11) #6
  %37 = load ptr, ptr %5, align 8, !tbaa !13
  %38 = getelementptr inbounds nuw %"class.ncnn::Mat", ptr %37, i32 0, i32 3
  %39 = load i32, ptr %38, align 8, !tbaa !27
  store i32 %39, ptr %11, align 4, !tbaa !23
  %40 = load i32, ptr %7, align 4, !tbaa !23
  %41 = icmp eq i32 %40, 1
  br i1 %41, label %42, label %89

42:                                               ; preds = %3
  call void @llvm.lifetime.start.p0(i64 4, ptr %12) #6
  %43 = load i32, ptr %8, align 4, !tbaa !23
  %44 = load i32, ptr %11, align 4, !tbaa !23
  %45 = mul nsw i32 %43, %44
  store i32 %45, ptr %12, align 4, !tbaa !23
  %46 = getelementptr inbounds nuw %"class.ncnn::PReLU", ptr %24, i32 0, i32 1
  %47 = load i32, ptr %46, align 8, !tbaa !28
  %48 = icmp sgt i32 %47, 1
  br i1 %48, label %49, label %68

49:                                               ; preds = %42
  call void @llvm.lifetime.start.p0(i64 8, ptr %13) #6
  %50 = load ptr, ptr %5, align 8, !tbaa !13
  %51 = call noundef ptr @_ZN4ncnn3MatcvPT_IfEEv(ptr noundef nonnull align 8 dereferenceable(72) %50)
  store ptr %51, ptr %13, align 8, !tbaa !43
  call void @llvm.lifetime.start.p0(i64 8, ptr %14) #6
  %52 = getelementptr inbounds nuw %"class.ncnn::PReLU", ptr %24, i32 0, i32 2
  %53 = call noundef ptr @_ZNK4ncnn3MatcvPKT_IfEEv(ptr noundef nonnull align 8 dereferenceable(72) %52)
  store ptr %53, ptr %14, align 8, !tbaa !43
  call void @llvm.lifetime.start.p0(i64 4, ptr %15) #6
  store i32 0, ptr %15, align 4, !tbaa !23
  call void @llvm.lifetime.start.p0(i64 4, ptr %16) #6
  store i32 0, ptr %16, align 4, !tbaa !23
  %54 = load i32, ptr %12, align 4, !tbaa !23
  %55 = load i32, ptr %16, align 4, !tbaa !23
  %56 = sub nsw i32 %54, %55
  %57 = sdiv i32 %56, 4
  store i32 %57, ptr %15, align 4, !tbaa !23
  %58 = load ptr, ptr %6, align 8, !tbaa !15
  %59 = getelementptr inbounds nuw %"class.ncnn::Option", ptr %58, i32 0, i32 1
  %60 = load i32, ptr %59, align 4, !tbaa !45
  call void @__kmpc_push_num_threads(ptr @2, i32 %23, i32 %60)
  call void (ptr, i32, ptr, ...) @__kmpc_fork_call(ptr @2, i32 4, ptr @_ZNK4ncnn9PReLU_x8615forward_inplaceERNS_3MatERKNS_6OptionE.omp_outlined, ptr %15, ptr %16, ptr %13, ptr %14)
  %61 = load i32, ptr %15, align 4, !tbaa !23
  %62 = mul nsw i32 %61, 4
  %63 = load i32, ptr %16, align 4, !tbaa !23
  %64 = add nsw i32 %63, %62
  store i32 %64, ptr %16, align 4, !tbaa !23
  %65 = load ptr, ptr %6, align 8, !tbaa !15
  %66 = getelementptr inbounds nuw %"class.ncnn::Option", ptr %65, i32 0, i32 1
  %67 = load i32, ptr %66, align 4, !tbaa !45
  call void @__kmpc_push_num_threads(ptr @2, i32 %23, i32 %67)
  call void (ptr, i32, ptr, ...) @__kmpc_fork_call(ptr @2, i32 4, ptr @_ZNK4ncnn9PReLU_x8615forward_inplaceERNS_3MatERKNS_6OptionE.omp_outlined.1, ptr %12, ptr %16, ptr %13, ptr %24)
  call void @llvm.lifetime.end.p0(i64 4, ptr %16) #6
  call void @llvm.lifetime.end.p0(i64 4, ptr %15) #6
  call void @llvm.lifetime.end.p0(i64 8, ptr %14) #6
  call void @llvm.lifetime.end.p0(i64 8, ptr %13) #6
  br label %88

68:                                               ; preds = %42
  call void @llvm.lifetime.start.p0(i64 8, ptr %17) #6
  %69 = load ptr, ptr %5, align 8, !tbaa !13
  %70 = call noundef ptr @_ZN4ncnn3MatcvPT_IfEEv(ptr noundef nonnull align 8 dereferenceable(72) %69)
  store ptr %70, ptr %17, align 8, !tbaa !43
  call void @llvm.lifetime.start.p0(i64 4, ptr %18) #6
  %71 = getelementptr inbounds nuw %"class.ncnn::PReLU", ptr %24, i32 0, i32 2
  %72 = call noundef nonnull align 4 dereferenceable(4) ptr @_ZNK4ncnn3MatixEm(ptr noundef nonnull align 8 dereferenceable(72) %71, i64 noundef 0)
  %73 = load float, ptr %72, align 4, !tbaa !47
  store float %73, ptr %18, align 4, !tbaa !47
  call void @llvm.lifetime.start.p0(i64 4, ptr %19) #6
  store i32 0, ptr %19, align 4, !tbaa !23
  call void @llvm.lifetime.start.p0(i64 4, ptr %20) #6
  store i32 0, ptr %20, align 4, !tbaa !23
  %74 = load i32, ptr %12, align 4, !tbaa !23
  %75 = load i32, ptr %20, align 4, !tbaa !23
  %76 = sub nsw i32 %74, %75
  %77 = sdiv i32 %76, 4
  store i32 %77, ptr %19, align 4, !tbaa !23
  %78 = load ptr, ptr %6, align 8, !tbaa !15
  %79 = getelementptr inbounds nuw %"class.ncnn::Option", ptr %78, i32 0, i32 1
  %80 = load i32, ptr %79, align 4, !tbaa !45
  call void @__kmpc_push_num_threads(ptr @2, i32 %23, i32 %80)
  call void (ptr, i32, ptr, ...) @__kmpc_fork_call(ptr @2, i32 4, ptr @_ZNK4ncnn9PReLU_x8615forward_inplaceERNS_3MatERKNS_6OptionE.omp_outlined.2, ptr %19, ptr %20, ptr %17, ptr %18)
  %81 = load i32, ptr %19, align 4, !tbaa !23
  %82 = mul nsw i32 %81, 4
  %83 = load i32, ptr %20, align 4, !tbaa !23
  %84 = add nsw i32 %83, %82
  store i32 %84, ptr %20, align 4, !tbaa !23
  %85 = load ptr, ptr %6, align 8, !tbaa !15
  %86 = getelementptr inbounds nuw %"class.ncnn::Option", ptr %85, i32 0, i32 1
  %87 = load i32, ptr %86, align 4, !tbaa !45
  call void @__kmpc_push_num_threads(ptr @2, i32 %23, i32 %87)
  call void (ptr, i32, ptr, ...) @__kmpc_fork_call(ptr @2, i32 4, ptr @_ZNK4ncnn9PReLU_x8615forward_inplaceERNS_3MatERKNS_6OptionE.omp_outlined.3, ptr %12, ptr %20, ptr %17, ptr %18)
  call void @llvm.lifetime.end.p0(i64 4, ptr %20) #6
  call void @llvm.lifetime.end.p0(i64 4, ptr %19) #6
  call void @llvm.lifetime.end.p0(i64 4, ptr %18) #6
  call void @llvm.lifetime.end.p0(i64 8, ptr %17) #6
  br label %88

88:                                               ; preds = %68, %49
  call void @llvm.lifetime.end.p0(i64 4, ptr %12) #6
  br label %89

89:                                               ; preds = %88, %3
  %90 = load i32, ptr %7, align 4, !tbaa !23
  %91 = icmp eq i32 %90, 2
  br i1 %91, label %92, label %100

92:                                               ; preds = %89
  call void @llvm.lifetime.start.p0(i64 4, ptr %21) #6
  %93 = load i32, ptr %8, align 4, !tbaa !23
  %94 = load i32, ptr %11, align 4, !tbaa !23
  %95 = mul nsw i32 %93, %94
  store i32 %95, ptr %21, align 4, !tbaa !23
  %96 = load ptr, ptr %6, align 8, !tbaa !15
  %97 = getelementptr inbounds nuw %"class.ncnn::Option", ptr %96, i32 0, i32 1
  %98 = load i32, ptr %97, align 4, !tbaa !45
  call void @__kmpc_push_num_threads(ptr @2, i32 %23, i32 %98)
  %99 = load ptr, ptr %5, align 8, !tbaa !13
  call void (ptr, i32, ptr, ...) @__kmpc_fork_call(ptr @2, i32 5, ptr @_ZNK4ncnn9PReLU_x8615forward_inplaceERNS_3MatERKNS_6OptionE.omp_outlined.4, ptr %9, ptr %99, ptr %24, ptr %11, ptr %21)
  call void @llvm.lifetime.end.p0(i64 4, ptr %21) #6
  br label %100

100:                                              ; preds = %92, %89
  %101 = load i32, ptr %7, align 4, !tbaa !23
  %102 = icmp eq i32 %101, 3
  br i1 %102, label %103, label %113

103:                                              ; preds = %100
  call void @llvm.lifetime.start.p0(i64 4, ptr %22) #6
  %104 = load i32, ptr %8, align 4, !tbaa !23
  %105 = load i32, ptr %9, align 4, !tbaa !23
  %106 = mul nsw i32 %104, %105
  %107 = load i32, ptr %11, align 4, !tbaa !23
  %108 = mul nsw i32 %106, %107
  store i32 %108, ptr %22, align 4, !tbaa !23
  %109 = load ptr, ptr %6, align 8, !tbaa !15
  %110 = getelementptr inbounds nuw %"class.ncnn::Option", ptr %109, i32 0, i32 1
  %111 = load i32, ptr %110, align 4, !tbaa !45
  call void @__kmpc_push_num_threads(ptr @2, i32 %23, i32 %111)
  %112 = load ptr, ptr %5, align 8, !tbaa !13
  call void (ptr, i32, ptr, ...) @__kmpc_fork_call(ptr @2, i32 5, ptr @_ZNK4ncnn9PReLU_x8615forward_inplaceERNS_3MatERKNS_6OptionE.omp_outlined.5, ptr %10, ptr %112, ptr %24, ptr %11, ptr %22)
  call void @llvm.lifetime.end.p0(i64 4, ptr %22) #6
  br label %113

113:                                              ; preds = %103, %100
  call void @llvm.lifetime.end.p0(i64 4, ptr %11) #6
  call void @llvm.lifetime.end.p0(i64 4, ptr %10) #6
  call void @llvm.lifetime.end.p0(i64 4, ptr %9) #6
  call void @llvm.lifetime.end.p0(i64 4, ptr %8) #6
  call void @llvm.lifetime.end.p0(i64 4, ptr %7) #6
  ret i32 0
}